; Function Attrs: mustprogress uwtable
define hidden void @_ZN2cv8datasets13TRACK_votImpl14numberToStringB5cxx11Ei(ptr dead_on_unwind noalias nonnull writable sret(%"class.std::__cxx11::basic_string") align 8 %0, ptr nocapture noundef nonnull readnone align 8 dereferenceable(136) %1, i32 noundef %2) local_unnamed_addr #0 align 2 personality ptr @__gxx_personality_v0 {
  %4 = alloca [20 x i8], align 16
  tail call void @_ZNSt7__cxx1112basic_stringIcSt11char_traitsIcESaIcEEC1Ev(ptr noundef nonnull align 8 dereferenceable(32) %0) #18
  %5 = call i32 (ptr, ptr, ...) @sprintf(ptr noundef nonnull dereferenceable(1) %4, ptr noundef nonnull dereferenceable(1) @.str, i32 noundef %2) #18
  %6 = call i64 @strlen(ptr noundef nonnull dereferenceable(1) %4) #23
  %.not = icmp eq i64 %6, 8
  br i1 %.not, label %._crit_edge, label %.lr.ph

.lr.ph:                                           ; preds = %3, %8
  %.05 = phi i32 [ %9, %8 ], [ 0, %3 ]
  %7 = invoke noundef nonnull align 8 dereferenceable(32) ptr @_ZNSt7__cxx1112basic_stringIcSt11char_traitsIcESaIcEEpLEPKc(ptr noundef nonnull align 8 dereferenceable(32) %0, ptr noundef nonnull @.str.1)
          to label %8 unwind label %.loopexit

8:                                                ; preds = %.lr.ph
  %9 = add i32 %.05, 1
  %10 = zext i32 %9 to i64
  %11 = call i64 @strlen(ptr noundef nonnull dereferenceable(1) %4) #23
  %12 = sub i64 8, %11
  %13 = icmp ugt i64 %12, %10
  br i1 %13, label %.lr.ph, label %._crit_edge, !llvm.loop !7

.loopexit:                                        ; preds = %.lr.ph
  %lpad.loopexit = landingpad { ptr, i32 }
          cleanup
  br label %14

.loopexit.split-lp:                               ; preds = %._crit_edge
  %lpad.loopexit.split-lp = landingpad { ptr, i32 }
          cleanup
  br label %14

14:                                               ; preds = %.loopexit.split-lp, %.loopexit
  %lpad.phi = phi { ptr, i32 } [ %lpad.loopexit, %.loopexit ], [ %lpad.loopexit.split-lp, %.loopexit.split-lp ]
  call void @_ZNSt7__cxx1112basic_stringIcSt11char_traitsIcESaIcEED1Ev(ptr noundef nonnull align 8 dereferenceable(32) %0) #18
  resume { ptr, i32 } %lpad.phi

._crit_edge:                                      ; preds = %8, %3
  %15 = invoke noundef nonnull align 8 dereferenceable(32) ptr @_ZNSt7__cxx1112basic_stringIcSt11char_traitsIcESaIcEEpLEPKc(ptr noundef nonnull align 8 dereferenceable(32) %0, ptr noundef nonnull %4)
          to label %16 unwind label %.loopexit.split-lp

16:                                               ; preds = %._crit_edge
  ret void
}